target datalayout = "e-m:e-p270:32:32-p271:32:32-p272:64:64-i64:64-i128:128-f80:128-n8:16:32:64-S128"
target triple = "x86_64-pc-linux-gnu"

@.str.23 = private unnamed_addr constant [2 x i8] c"\0A\00", align 1
@.str.24 = private unnamed_addr constant [25 x i8] c"KINGetNumNonlinSolvIters\00", align 1
@.str.25 = private unnamed_addr constant [19 x i8] c"KINGetNumFuncEvals\00", align 1
@.str.26 = private unnamed_addr constant [18 x i8] c"KINGetNumLinIters\00", align 1
@.str.27 = private unnamed_addr constant [22 x i8] c"KINGetNumLinFuncEvals\00", align 1
@.str.28 = private unnamed_addr constant [22 x i8] c"KINGetNumLinConvFails\00", align 1
@.str.29 = private unnamed_addr constant [21 x i8] c"KINGetNumJtimesEvals\00", align 1
@.str.30 = private unnamed_addr constant [19 x i8] c"KINGetNumPrecEvals\00", align 1
@.str.31 = private unnamed_addr constant [20 x i8] c"KINGetNumPrecSolves\00", align 1
@.str.32 = private unnamed_addr constant [16 x i8] c"KINGetWorkSpace\00", align 1
@.str.33 = private unnamed_addr constant [19 x i8] c"KINGetLinWorkSpace\00", align 1
@.str.34 = private unnamed_addr constant [23 x i8] c"\0AFinal Statistics.. \0A\0A\00", align 1
@.str.35 = private unnamed_addr constant [39 x i8] c"nni = %6ld  nli   = %6ld  ncfl = %6ld\0A\00", align 1
@.str.36 = private unnamed_addr constant [39 x i8] c"nfe = %6ld  nfeLS = %6ld  njt  = %6ld\0A\00", align 1
@.str.37 = private unnamed_addr constant [26 x i8] c"npe = %6ld  nps   = %6ld\0A\00", align 1
@.str.38 = private unnamed_addr constant [32 x i8] c"lenrw   = %6ld  leniw   = %6ld\0A\00", align 1
@.str.39 = private unnamed_addr constant [32 x i8] c"lenrwLS = %6ld  leniwLS = %6ld\0A\00", align 1
@stderr = external global ptr, align 8
@.str.40 = private unnamed_addr constant [55 x i8] c"\0ASUNDIALS_ERROR: %s() failed - returned NULL pointer\0A\0A\00", align 1
@.str.41 = private unnamed_addr constant [48 x i8] c"\0ASUNDIALS_ERROR: %s() failed with retval = %d\0A\0A\00", align 1
@.str.42 = private unnamed_addr constant [53 x i8] c"\0AMEMORY_ERROR: %s() failed - returned NULL pointer\0A\0A\00", align 1

; Function Attrs: nounwind uwtable
define internal i32 @check_retval(ptr noundef %0, ptr noundef %1, i32 noundef %2) #0 {
  %4 = alloca i32, align 4
  %5 = alloca ptr, align 8
  %6 = alloca ptr, align 8
  %7 = alloca i32, align 4
  %8 = alloca ptr, align 8
  %9 = alloca i32, align 4
  store ptr %0, ptr %5, align 8, !tbaa !9
  store ptr %1, ptr %6, align 8, !tbaa !20
  store i32 %2, ptr %7, align 4, !tbaa !12
  call void @llvm.lifetime.start.p0(i64 8, ptr %8) #5
  %10 = load i32, ptr %7, align 4, !tbaa !12
  %11 = icmp eq i32 %10, 0
  br i1 %11, label %12, label %19

12:                                               ; preds = %3
  %13 = load ptr, ptr %5, align 8, !tbaa !9
  %14 = icmp eq ptr %13, null
  br i1 %14, label %15, label %19

15:                                               ; preds = %12
  %16 = load ptr, ptr @stderr, align 8, !tbaa !18
  %17 = load ptr, ptr %6, align 8, !tbaa !20
  %18 = call i32 (ptr, ptr, ...) @fprintf(ptr noundef %16, ptr noundef @.str.40, ptr noundef %17) #5
  store i32 1, ptr %4, align 4
  store i32 1, ptr %9, align 4
  br label %47

19:                                               ; preds = %12, %3
  %20 = load i32, ptr %7, align 4, !tbaa !12
  %21 = icmp eq i32 %20, 1
  br i1 %21, label %22, label %34

22:                                               ; preds = %19
  %23 = load ptr, ptr %5, align 8, !tbaa !9
  store ptr %23, ptr %8, align 8, !tbaa !22
  %24 = load ptr, ptr %8, align 8, !tbaa !22
  %25 = load i32, ptr %24, align 4, !tbaa !12
  %26 = icmp slt i32 %25, 0
  br i1 %26, label %27, label %33

27:                                               ; preds = %22
  %28 = load ptr, ptr @stderr, align 8, !tbaa !18
  %29 = load ptr, ptr %6, align 8, !tbaa !20
  %30 = load ptr, ptr %8, align 8, !tbaa !22
  %31 = load i32, ptr %30, align 4, !tbaa !12
  %32 = call i32 (ptr, ptr, ...) @fprintf(ptr noundef %28, ptr noundef @.str.41, ptr noundef %29, i32 noundef %31) #5
  store i32 1, ptr %4, align 4
  store i32 1, ptr %9, align 4
  br label %47

33:                                               ; preds = %22
  br label %45

34:                                               ; preds = %19
  %35 = load i32, ptr %7, align 4, !tbaa !12
  %36 = icmp eq i32 %35, 2
  br i1 %36, label %37, label %44

37:                                               ; preds = %34
  %38 = load ptr, ptr %5, align 8, !tbaa !9
  %39 = icmp eq ptr %38, null
  br i1 %39, label %40, label %44

40:                                               ; preds = %37
  %41 = load ptr, ptr @stderr, align 8, !tbaa !18
  %42 = load ptr, ptr %6, align 8, !tbaa !20
  %43 = call i32 (ptr, ptr, ...) @fprintf(ptr noundef %41, ptr noundef @.str.42, ptr noundef %42) #5
  store i32 1, ptr %4, align 4
  store i32 1, ptr %9, align 4
  br label %47

44:                                               ; preds = %37, %34
  br label %45

45:                                               ; preds = %44, %33
  br label %46

46:                                               ; preds = %45
  store i32 0, ptr %4, align 4
  store i32 1, ptr %9, align 4
  br label %47

47:                                               ; preds = %46, %40, %27, %15
  call void @llvm.lifetime.end.p0(i64 8, ptr %8) #5
  %48 = load i32, ptr %4, align 4
  ret i32 %48
}

; Function Attrs: nounwind uwtable
define internal void @PrintFinalStats(ptr noundef %0) #0 {
  %2 = alloca ptr, align 8
  %3 = alloca i64, align 8
  %4 = alloca i64, align 8
  %5 = alloca i64, align 8
  %6 = alloca i64, align 8
  %7 = alloca i64, align 8
  %8 = alloca i64, align 8
  %9 = alloca i64, align 8
  %10 = alloca i64, align 8
  %11 = alloca i64, align 8
  %12 = alloca i64, align 8
  %13 = alloca i64, align 8
  %14 = alloca i64, align 8
  %15 = alloca i32, align 4
  store ptr %0, ptr %2, align 8, !tbaa !9
  call void @llvm.lifetime.start.p0(i64 8, ptr %3) #5
  call void @llvm.lifetime.start.p0(i64 8, ptr %4) #5
  call void @llvm.lifetime.start.p0(i64 8, ptr %5) #5
  call void @llvm.lifetime.start.p0(i64 8, ptr %6) #5
  call void @llvm.lifetime.start.p0(i64 8, ptr %7) #5
  call void @llvm.lifetime.start.p0(i64 8, ptr %8) #5
  call void @llvm.lifetime.start.p0(i64 8, ptr %9) #5
  call void @llvm.lifetime.start.p0(i64 8, ptr %10) #5
  call void @llvm.lifetime.start.p0(i64 8, ptr %11) #5
  call void @llvm.lifetime.start.p0(i64 8, ptr %12) #5
  call void @llvm.lifetime.start.p0(i64 8, ptr %13) #5
  call void @llvm.lifetime.start.p0(i64 8, ptr %14) #5
  call void @llvm.lifetime.start.p0(i64 4, ptr %15) #5
  %16 = load ptr, ptr %2, align 8, !tbaa !9
  %17 = call i32 @KINGetNumNonlinSolvIters(ptr noundef %16, ptr noundef %3)
  store i32 %17, ptr %15, align 4, !tbaa !12
  %18 = call i32 @check_retval(ptr noundef %15, ptr noundef @.str.24, i32 noundef 1)
  %19 = load ptr, ptr %2, align 8, !tbaa !9
  %20 = call i32 @KINGetNumFuncEvals(ptr noundef %19, ptr noundef %4)
  store i32 %20, ptr %15, align 4, !tbaa !12
  %21 = call i32 @check_retval(ptr noundef %15, ptr noundef @.str.25, i32 noundef 1)
  %22 = load ptr, ptr %2, align 8, !tbaa !9
  %23 = call i32 @KINGetNumLinIters(ptr noundef %22, ptr noundef %5)
  store i32 %23, ptr %15, align 4, !tbaa !12
  %24 = call i32 @check_retval(ptr noundef %15, ptr noundef @.str.26, i32 noundef 1)
  %25 = load ptr, ptr %2, align 8, !tbaa !9
  %26 = call i32 @KINGetNumLinFuncEvals(ptr noundef %25, ptr noundef %9)
  store i32 %26, ptr %15, align 4, !tbaa !12
  %27 = call i32 @check_retval(ptr noundef %15, ptr noundef @.str.27, i32 noundef 1)
  %28 = load ptr, ptr %2, align 8, !tbaa !9
  %29 = call i32 @KINGetNumLinConvFails(ptr noundef %28, ptr noundef %8)
  store i32 %29, ptr %15, align 4, !tbaa !12
  %30 = call i32 @check_retval(ptr noundef %15, ptr noundef @.str.28, i32 noundef 1)
  %31 = load ptr, ptr %2, align 8, !tbaa !9
  %32 = call i32 @KINGetNumJtimesEvals(ptr noundef %31, ptr noundef %10)
  store i32 %32, ptr %15, align 4, !tbaa !12
  %33 = call i32 @check_retval(ptr noundef %15, ptr noundef @.str.29, i32 noundef 1)
  %34 = load ptr, ptr %2, align 8, !tbaa !9
  %35 = call i32 @KINGetNumPrecEvals(ptr noundef %34, ptr noundef %6)
  store i32 %35, ptr %15, align 4, !tbaa !12
  %36 = call i32 @check_retval(ptr noundef %15, ptr noundef @.str.30, i32 noundef 1)
  %37 = load ptr, ptr %2, align 8, !tbaa !9
  %38 = call i32 @KINGetNumPrecSolves(ptr noundef %37, ptr noundef %7)
  store i32 %38, ptr %15, align 4, !tbaa !12
  %39 = call i32 @check_retval(ptr noundef %15, ptr noundef @.str.31, i32 noundef 1)
  %40 = load ptr, ptr %2, align 8, !tbaa !9
  %41 = call i32 @KINGetWorkSpace(ptr noundef %40, ptr noundef %11, ptr noundef %12)
  store i32 %41, ptr %15, align 4, !tbaa !12
  %42 = call i32 @check_retval(ptr noundef %15, ptr noundef @.str.32, i32 noundef 1)
  %43 = load ptr, ptr %2, align 8, !tbaa !9
  %44 = call i32 @KINGetLinWorkSpace(ptr noundef %43, ptr noundef %13, ptr noundef %14)
  store i32 %44, ptr %15, align 4, !tbaa !12
  %45 = call i32 @check_retval(ptr noundef %15, ptr noundef @.str.33, i32 noundef 1)
  %46 = call i32 (ptr, ...) @printf(ptr noundef @.str.34)
  %47 = load i64, ptr %3, align 8, !tbaa !26
  %48 = load i64, ptr %5, align 8, !tbaa !26
  %49 = load i64, ptr %8, align 8, !tbaa !26
  %50 = call i32 (ptr, ...) @printf(ptr noundef @.str.35, i64 noundef %47, i64 noundef %48, i64 noundef %49)
  %51 = load i64, ptr %4, align 8, !tbaa !26
  %52 = load i64, ptr %9, align 8, !tbaa !26
  %53 = load i64, ptr %10, align 8, !tbaa !26
  %54 = call i32 (ptr, ...) @printf(ptr noundef @.str.36, i64 noundef %51, i64 noundef %52, i64 noundef %53)
  %55 = load i64, ptr %6, align 8, !tbaa !26
  %56 = load i64, ptr %7, align 8, !tbaa !26
  %57 = call i32 (ptr, ...) @printf(ptr noundef @.str.37, i64 noundef %55, i64 noundef %56)
  %58 = call i32 (ptr, ...) @printf(ptr noundef @.str.23)
  %59 = load i64, ptr %11, align 8, !tbaa !26
  %60 = load i64, ptr %12, align 8, !tbaa !26
  %61 = call i32 (ptr, ...) @printf(ptr noundef @.str.38, i64 noundef %59, i64 noundef %60)
  %62 = load i64, ptr %13, align 8, !tbaa !26
  %63 = load i64, ptr %14, align 8, !tbaa !26
  %64 = call i32 (ptr, ...) @printf(ptr noundef @.str.39, i64 noundef %62, i64 noundef %63)
  call void @llvm.lifetime.end.p0(i64 4, ptr %15) #5
  call void @llvm.lifetime.end.p0(i64 8, ptr %14) #5
  call void @llvm.lifetime.end.p0(i64 8, ptr %13) #5
  call void @llvm.lifetime.end.p0(i64 8, ptr %12) #5
  call void @llvm.lifetime.end.p0(i64 8, ptr %11) #5
  call void @llvm.lifetime.end.p0(i64 8, ptr %10) #5
  call void @llvm.lifetime.end.p0(i64 8, ptr %9) #5
  call void @llvm.lifetime.end.p0(i64 8, ptr %8) #5
  call void @llvm.lifetime.end.p0(i64 8, ptr %7) #5
  call void @llvm.lifetime.end.p0(i64 8, ptr %6) #5
  call void @llvm.lifetime.end.p0(i64 8, ptr %5) #5
  call void @llvm.lifetime.end.p0(i64 8, ptr %4) #5
  call void @llvm.lifetime.end.p0(i64 8, ptr %3) #5
  ret void
}