; Function Attrs: nounwind uwtable
define internal fastcc void @PrintFinalStats(ptr noundef %0) unnamed_addr #0 {
  %2 = alloca i64, align 8
  %3 = alloca i64, align 8
  %4 = alloca i64, align 8
  %5 = alloca i64, align 8
  %6 = alloca i64, align 8
  %7 = alloca i64, align 8
  %8 = alloca i64, align 8
  %9 = alloca i64, align 8
  %10 = alloca i64, align 8
  %11 = alloca i64, align 8
  %12 = alloca i64, align 8
  %13 = alloca i64, align 8
  call void @llvm.lifetime.start.p0(i64 8, ptr nonnull %2) #6
  call void @llvm.lifetime.start.p0(i64 8, ptr nonnull %3) #6
  call void @llvm.lifetime.start.p0(i64 8, ptr nonnull %4) #6
  call void @llvm.lifetime.start.p0(i64 8, ptr nonnull %5) #6
  call void @llvm.lifetime.start.p0(i64 8, ptr nonnull %6) #6
  call void @llvm.lifetime.start.p0(i64 8, ptr nonnull %7) #6
  call void @llvm.lifetime.start.p0(i64 8, ptr nonnull %8) #6
  call void @llvm.lifetime.start.p0(i64 8, ptr nonnull %9) #6
  call void @llvm.lifetime.start.p0(i64 8, ptr nonnull %10) #6
  call void @llvm.lifetime.start.p0(i64 8, ptr nonnull %11) #6
  call void @llvm.lifetime.start.p0(i64 8, ptr nonnull %12) #6
  call void @llvm.lifetime.start.p0(i64 8, ptr nonnull %13) #6
  %14 = call i32 @KINGetNumNonlinSolvIters(ptr noundef %0, ptr noundef nonnull %2) #6
  %15 = icmp slt i32 %14, 0
  br i1 %15, label %16, label %check_retval.exit

16:                                               ; preds = %1
  %17 = load ptr, ptr @stderr, align 8, !tbaa !4
  %18 = call i32 (ptr, ptr, ...) @fprintf(ptr noundef %17, ptr noundef nonnull @.str.41, ptr noundef nonnull @.str.24, i32 noundef %14) #7
  br label %check_retval.exit

check_retval.exit:                                ; preds = %1, %16
  %19 = call i32 @KINGetNumFuncEvals(ptr noundef %0, ptr noundef nonnull %3) #6
  %20 = icmp slt i32 %19, 0
  br i1 %20, label %21, label %check_retval.exit11

21:                                               ; preds = %check_retval.exit
  %22 = load ptr, ptr @stderr, align 8, !tbaa !4
  %23 = call i32 (ptr, ptr, ...) @fprintf(ptr noundef %22, ptr noundef nonnull @.str.41, ptr noundef nonnull @.str.25, i32 noundef %19) #7
  br label %check_retval.exit11

check_retval.exit11:                              ; preds = %check_retval.exit, %21
  %24 = call i32 @KINGetNumLinIters(ptr noundef %0, ptr noundef nonnull %4) #6
  %25 = icmp slt i32 %24, 0
  br i1 %25, label %26, label %check_retval.exit13

26:                                               ; preds = %check_retval.exit11
  %27 = load ptr, ptr @stderr, align 8, !tbaa !4
  %28 = call i32 (ptr, ptr, ...) @fprintf(ptr noundef %27, ptr noundef nonnull @.str.41, ptr noundef nonnull @.str.26, i32 noundef %24) #7
  br label %check_retval.exit13

check_retval.exit13:                              ; preds = %check_retval.exit11, %26
  %29 = call i32 @KINGetNumLinFuncEvals(ptr noundef %0, ptr noundef nonnull %8) #6
  %30 = icmp slt i32 %29, 0
  br i1 %30, label %31, label %check_retval.exit15

31:                                               ; preds = %check_retval.exit13
  %32 = load ptr, ptr @stderr, align 8, !tbaa !4
  %33 = call i32 (ptr, ptr, ...) @fprintf(ptr noundef %32, ptr noundef nonnull @.str.41, ptr noundef nonnull @.str.27, i32 noundef %29) #7
  br label %check_retval.exit15

check_retval.exit15:                              ; preds = %check_retval.exit13, %31
  %34 = call i32 @KINGetNumLinConvFails(ptr noundef %0, ptr noundef nonnull %7) #6
  %35 = icmp slt i32 %34, 0
  br i1 %35, label %36, label %check_retval.exit17

36:                                               ; preds = %check_retval.exit15
  %37 = load ptr, ptr @stderr, align 8, !tbaa !4
  %38 = call i32 (ptr, ptr, ...) @fprintf(ptr noundef %37, ptr noundef nonnull @.str.41, ptr noundef nonnull @.str.28, i32 noundef %34) #7
  br label %check_retval.exit17

check_retval.exit17:                              ; preds = %check_retval.exit15, %36
  %39 = call i32 @KINGetNumJtimesEvals(ptr noundef %0, ptr noundef nonnull %9) #6
  %40 = icmp slt i32 %39, 0
  br i1 %40, label %41, label %check_retval.exit19

41:                                               ; preds = %check_retval.exit17
  %42 = load ptr, ptr @stderr, align 8, !tbaa !4
  %43 = call i32 (ptr, ptr, ...) @fprintf(ptr noundef %42, ptr noundef nonnull @.str.41, ptr noundef nonnull @.str.29, i32 noundef %39) #7
  br label %check_retval.exit19

check_retval.exit19:                              ; preds = %check_retval.exit17, %41
  %44 = call i32 @KINGetNumPrecEvals(ptr noundef %0, ptr noundef nonnull %5) #6
  %45 = icmp slt i32 %44, 0
  br i1 %45, label %46, label %check_retval.exit21

46:                                               ; preds = %check_retval.exit19
  %47 = load ptr, ptr @stderr, align 8, !tbaa !4
  %48 = call i32 (ptr, ptr, ...) @fprintf(ptr noundef %47, ptr noundef nonnull @.str.41, ptr noundef nonnull @.str.30, i32 noundef %44) #7
  br label %check_retval.exit21

check_retval.exit21:                              ; preds = %check_retval.exit19, %46
  %49 = call i32 @KINGetNumPrecSolves(ptr noundef %0, ptr noundef nonnull %6) #6
  %50 = icmp slt i32 %49, 0
  br i1 %50, label %51, label %check_retval.exit23

51:                                               ; preds = %check_retval.exit21
  %52 = load ptr, ptr @stderr, align 8, !tbaa !4
  %53 = call i32 (ptr, ptr, ...) @fprintf(ptr noundef %52, ptr noundef nonnull @.str.41, ptr noundef nonnull @.str.31, i32 noundef %49) #7
  br label %check_retval.exit23

check_retval.exit23:                              ; preds = %check_retval.exit21, %51
  %54 = call i32 @KINGetWorkSpace(ptr noundef %0, ptr noundef nonnull %10, ptr noundef nonnull %11) #6
  %55 = icmp slt i32 %54, 0
  br i1 %55, label %56, label %check_retval.exit25

56:                                               ; preds = %check_retval.exit23
  %57 = load ptr, ptr @stderr, align 8, !tbaa !4
  %58 = call i32 (ptr, ptr, ...) @fprintf(ptr noundef %57, ptr noundef nonnull @.str.41, ptr noundef nonnull @.str.32, i32 noundef %54) #7
  br label %check_retval.exit25

check_retval.exit25:                              ; preds = %check_retval.exit23, %56
  %59 = call i32 @KINGetLinWorkSpace(ptr noundef %0, ptr noundef nonnull %12, ptr noundef nonnull %13) #6
  %60 = icmp slt i32 %59, 0
  br i1 %60, label %61, label %check_retval.exit27

61:                                               ; preds = %check_retval.exit25
  %62 = load ptr, ptr @stderr, align 8, !tbaa !4
  %63 = call i32 (ptr, ptr, ...) @fprintf(ptr noundef %62, ptr noundef nonnull @.str.41, ptr noundef nonnull @.str.33, i32 noundef %59) #7
  br label %check_retval.exit27

check_retval.exit27:                              ; preds = %check_retval.exit25, %61
  %puts = call i32 @puts(ptr nonnull dereferenceable(1) @str.5)
  %64 = load i64, ptr %2, align 8, !tbaa !14
  %65 = load i64, ptr %4, align 8, !tbaa !14
  %66 = load i64, ptr %7, align 8, !tbaa !14
  %67 = call i32 (ptr, ...) @printf(ptr noundef nonnull dereferenceable(1) @.str.35, i64 noundef %64, i64 noundef %65, i64 noundef %66)
  %68 = load i64, ptr %3, align 8, !tbaa !14
  %69 = load i64, ptr %8, align 8, !tbaa !14
  %70 = load i64, ptr %9, align 8, !tbaa !14
  %71 = call i32 (ptr, ...) @printf(ptr noundef nonnull dereferenceable(1) @.str.36, i64 noundef %68, i64 noundef %69, i64 noundef %70)
  %72 = load i64, ptr %5, align 8, !tbaa !14
  %73 = load i64, ptr %6, align 8, !tbaa !14
  %74 = call i32 (ptr, ...) @printf(ptr noundef nonnull dereferenceable(1) @.str.37, i64 noundef %72, i64 noundef %73)
  %putchar = call i32 @putchar(i32 10)
  %75 = load i64, ptr %10, align 8, !tbaa !14
  %76 = load i64, ptr %11, align 8, !tbaa !14
  %77 = call i32 (ptr, ...) @printf(ptr noundef nonnull dereferenceable(1) @.str.38, i64 noundef %75, i64 noundef %76)
  %78 = load i64, ptr %12, align 8, !tbaa !14
  %79 = load i64, ptr %13, align 8, !tbaa !14
  %80 = call i32 (ptr, ...) @printf(ptr noundef nonnull dereferenceable(1) @.str.39, i64 noundef %78, i64 noundef %79)
  call void @llvm.lifetime.end.p0(i64 8, ptr nonnull %13) #6
  call void @llvm.lifetime.end.p0(i64 8, ptr nonnull %12) #6
  call void @llvm.lifetime.end.p0(i64 8, ptr nonnull %11) #6
  call void @llvm.lifetime.end.p0(i64 8, ptr nonnull %10) #6
  call void @llvm.lifetime.end.p0(i64 8, ptr nonnull %9) #6
  call void @llvm.lifetime.end.p0(i64 8, ptr nonnull %8) #6
  call void @llvm.lifetime.end.p0(i64 8, ptr nonnull %7) #6
  call void @llvm.lifetime.end.p0(i64 8, ptr nonnull %6) #6
  call void @llvm.lifetime.end.p0(i64 8, ptr nonnull %5) #6
  call void @llvm.lifetime.end.p0(i64 8, ptr nonnull %4) #6
  call void @llvm.lifetime.end.p0(i64 8, ptr nonnull %3) #6
  call void @llvm.lifetime.end.p0(i64 8, ptr nonnull %2) #6
  ret void
}